; ModuleID = '14/1197.c'
source_filename = "14/1197.c"
target datalayout = "e-m:e-p270:32:32-p271:32:32-p272:64:64-i64:64-f80:128-n8:16:32:64-S128"
target triple = "x86_64-pc-linux-gnu"

%struct.student = type { i32, i32, i32, i32, %struct.student* }

@n = common dso_local global i32 0, align 4
@.str = private unnamed_addr constant [9 x i8] c"%d %d %d\00", align 1
@N = common dso_local global i32 0, align 4
@.str.1 = private unnamed_addr constant [3 x i8] c"%d\00", align 1
@.str.2 = private unnamed_addr constant [7 x i8] c"%d %d\0A\00", align 1

; Function Attrs: noinline nounwind uwtable
define dso_local %struct.student* @creat() #0 {
  %1 = alloca %struct.student*, align 8
  %2 = alloca %struct.student*, align 8
  %3 = alloca %struct.student*, align 8
  store i32 0, i32* @n, align 4
  %4 = call noalias i8* @malloc(i64 100) #3
  %5 = bitcast i8* %4 to %struct.student*
  store %struct.student* %5, %struct.student** %3, align 8
  store %struct.student* %5, %struct.student** %2, align 8
  %6 = load %struct.student*, %struct.student** %2, align 8
  %7 = getelementptr inbounds %struct.student, %struct.student* %6, i32 0, i32 0
  %8 = load %struct.student*, %struct.student** %2, align 8
  %9 = getelementptr inbounds %struct.student, %struct.student* %8, i32 0, i32 1
  %10 = load %struct.student*, %struct.student** %2, align 8
  %11 = getelementptr inbounds %struct.student, %struct.student* %10, i32 0, i32 2
  %12 = call i32 (i8*, ...) @__isoc99_scanf(i8* getelementptr inbounds ([9 x i8], [9 x i8]* @.str, i64 0, i64 0), i32* %7, i32* %9, i32* %11)
  %13 = load %struct.student*, %struct.student** %2, align 8
  %14 = getelementptr inbounds %struct.student, %struct.student* %13, i32 0, i32 1
  %15 = load i32, i32* %14, align 4
  %16 = load %struct.student*, %struct.student** %2, align 8
  %17 = getelementptr inbounds %struct.student, %struct.student* %16, i32 0, i32 2
  %18 = load i32, i32* %17, align 8
  %19 = add nsw i32 %15, %18
  %20 = load %struct.student*, %struct.student** %2, align 8
  %21 = getelementptr inbounds %struct.student, %struct.student* %20, i32 0, i32 3
  store i32 %19, i32* %21, align 4
  store %struct.student* null, %struct.student** %1, align 8
  br label %22

22:                                               ; preds = %38, %0
  %23 = load i32, i32* @n, align 4
  %24 = load i32, i32* @N, align 4
  %25 = sub nsw i32 %24, 1
  %26 = icmp slt i32 %23, %25
  br i1 %26, label %27, label %58

27:                                               ; preds = %22
  %28 = load i32, i32* @n, align 4
  %29 = add nsw i32 %28, 1
  store i32 %29, i32* @n, align 4
  %30 = load i32, i32* @n, align 4
  %31 = icmp eq i32 %30, 1
  br i1 %31, label %32, label %34

32:                                               ; preds = %27
  %33 = load %struct.student*, %struct.student** %2, align 8
  store %struct.student* %33, %struct.student** %1, align 8
  br label %38

34:                                               ; preds = %27
  %35 = load %struct.student*, %struct.student** %2, align 8
  %36 = load %struct.student*, %struct.student** %3, align 8
  %37 = getelementptr inbounds %struct.student, %struct.student* %36, i32 0, i32 4
  store %struct.student* %35, %struct.student** %37, align 8
  br label %38

38:                                               ; preds = %34, %32
  %39 = load %struct.student*, %struct.student** %2, align 8
  store %struct.student* %39, %struct.student** %3, align 8
  %40 = call noalias i8* @malloc(i64 100) #3
  %41 = bitcast i8* %40 to %struct.student*
  store %struct.student* %41, %struct.student** %2, align 8
  %42 = load %struct.student*, %struct.student** %2, align 8
  %43 = getelementptr inbounds %struct.student, %struct.student* %42, i32 0, i32 0
  %44 = load %struct.student*, %struct.student** %2, align 8
  %45 = getelementptr inbounds %struct.student, %struct.student* %44, i32 0, i32 1
  %46 = load %struct.student*, %struct.student** %2, align 8
  %47 = getelementptr inbounds %struct.student, %struct.student* %46, i32 0, i32 2
  %48 = call i32 (i8*, ...) @__isoc99_scanf(i8* getelementptr inbounds ([9 x i8], [9 x i8]* @.str, i64 0, i64 0), i32* %43, i32* %45, i32* %47)
  %49 = load %struct.student*, %struct.student** %2, align 8
  %50 = getelementptr inbounds %struct.student, %struct.student* %49, i32 0, i32 1
  %51 = load i32, i32* %50, align 4
  %52 = load %struct.student*, %struct.student** %2, align 8
  %53 = getelementptr inbounds %struct.student, %struct.student* %52, i32 0, i32 2
  %54 = load i32, i32* %53, align 8
  %55 = add nsw i32 %51, %54
  %56 = load %struct.student*, %struct.student** %2, align 8
  %57 = getelementptr inbounds %struct.student, %struct.student* %56, i32 0, i32 3
  store i32 %55, i32* %57, align 4
  br label %22

58:                                               ; preds = %22
  %59 = load %struct.student*, %struct.student** %3, align 8
  %60 = getelementptr inbounds %struct.student, %struct.student* %59, i32 0, i32 4
  store %struct.student* null, %struct.student** %60, align 8
  %61 = load %struct.student*, %struct.student** %1, align 8
  ret %struct.student* %61
}

; Function Attrs: nounwind
declare dso_local noalias i8* @malloc(i64) #1

declare dso_local i32 @__isoc99_scanf(i8*, ...) #2

; Function Attrs: noinline nounwind uwtable
define dso_local void @main() #0 {
  %1 = alloca %struct.student*, align 8
  %2 = alloca %struct.student*, align 8
  %3 = alloca %struct.student*, align 8
  %4 = call i32 (i8*, ...) @__isoc99_scanf(i8* getelementptr inbounds ([3 x i8], [3 x i8]* @.str.1, i64 0, i64 0), i32* @N)
  %5 = call %struct.student* @creat()
  store %struct.student* %5, %struct.student** %1, align 8
  %6 = load %struct.student*, %struct.student** %1, align 8
  %7 = getelementptr inbounds %struct.student, %struct.student* %6, i32 0, i32 4
  %8 = load %struct.student*, %struct.student** %7, align 8
  store %struct.student* %8, %struct.student** %2, align 8
  %9 = load %struct.student*, %struct.student** %2, align 8
  %10 = getelementptr inbounds %struct.student, %struct.student* %9, i32 0, i32 4
  %11 = load %struct.student*, %struct.student** %10, align 8
  store %struct.student* %11, %struct.student** %3, align 8
  %12 = load %struct.student*, %struct.student** %1, align 8
  %13 = load %struct.student*, %struct.student** %2, align 8
  call void @sort(%struct.student* %12, %struct.student* %13)
  %14 = load %struct.student*, %struct.student** %2, align 8
  %15 = load %struct.student*, %struct.student** %3, align 8
  call void @sort(%struct.student* %14, %struct.student* %15)
  %16 = load %struct.student*, %struct.student** %3, align 8
  %17 = load %struct.student*, %struct.student** %3, align 8
  %18 = getelementptr inbounds %struct.student, %struct.student* %17, i32 0, i32 4
  %19 = load %struct.student*, %struct.student** %18, align 8
  call void @sort(%struct.student* %16, %struct.student* %19)
  %20 = load %struct.student*, %struct.student** %3, align 8
  %21 = getelementptr inbounds %struct.student, %struct.student* %20, i32 0, i32 4
  store %struct.student* null, %struct.student** %21, align 8
  %22 = load %struct.student*, %struct.student** %1, align 8
  store %struct.student* %22, %struct.student** %2, align 8
  br label %23

23:                                               ; preds = %26, %0
  %24 = load %struct.student*, %struct.student** %2, align 8
  %25 = icmp ne %struct.student* %24, null
  br i1 %25, label %26, label %37

26:                                               ; preds = %23
  %27 = load %struct.student*, %struct.student** %2, align 8
  %28 = getelementptr inbounds %struct.student, %struct.student* %27, i32 0, i32 0
  %29 = load i32, i32* %28, align 8
  %30 = load %struct.student*, %struct.student** %2, align 8
  %31 = getelementptr inbounds %struct.student, %struct.student* %30, i32 0, i32 3
  %32 = load i32, i32* %31, align 4
  %33 = call i32 (i8*, ...) @printf(i8* getelementptr inbounds ([7 x i8], [7 x i8]* @.str.2, i64 0, i64 0), i32 %29, i32 %32)
  %34 = load %struct.student*, %struct.student** %2, align 8
  %35 = getelementptr inbounds %struct.student, %struct.student* %34, i32 0, i32 4
  %36 = load %struct.student*, %struct.student** %35, align 8
  store %struct.student* %36, %struct.student** %2, align 8
  br label %23

37:                                               ; preds = %23
  ret void
}

; Function Attrs: noinline nounwind uwtable
define dso_local void @sort(%struct.student* %0, %struct.student* %1) #0 {
  %3 = alloca %struct.student*, align 8
  %4 = alloca %struct.student*, align 8
  %5 = alloca i32, align 4
  store %struct.student* %0, %struct.student** %3, align 8
  store %struct.student* %1, %struct.student** %4, align 8
  br label %6

6:                                                ; preds = %40, %2
  %7 = load %struct.student*, %struct.student** %4, align 8
  %8 = icmp ne %struct.student* %7, null
  br i1 %8, label %9, label %44

9:                                                ; preds = %6
  %10 = load %struct.student*, %struct.student** %3, align 8
  %11 = getelementptr inbounds %struct.student, %struct.student* %10, i32 0, i32 3
  %12 = load i32, i32* %11, align 4
  %13 = load %struct.student*, %struct.student** %4, align 8
  %14 = getelementptr inbounds %struct.student, %struct.student* %13, i32 0, i32 3
  %15 = load i32, i32* %14, align 4
  %16 = icmp slt i32 %12, %15
  br i1 %16, label %17, label %40

17:                                               ; preds = %9
  %18 = load %struct.student*, %struct.student** %3, align 8
  %19 = getelementptr inbounds %struct.student, %struct.student* %18, i32 0, i32 0
  %20 = load i32, i32* %19, align 8
  store i32 %20, i32* %5, align 4
  %21 = load %struct.student*, %struct.student** %4, align 8
  %22 = getelementptr inbounds %struct.student, %struct.student* %21, i32 0, i32 0
  %23 = load i32, i32* %22, align 8
  %24 = load %struct.student*, %struct.student** %3, align 8
  %25 = getelementptr inbounds %struct.student, %struct.student* %24, i32 0, i32 0
  store i32 %23, i32* %25, align 8
  %26 = load i32, i32* %5, align 4
  %27 = load %struct.student*, %struct.student** %4, align 8
  %28 = getelementptr inbounds %struct.student, %struct.student* %27, i32 0, i32 0
  store i32 %26, i32* %28, align 8
  %29 = load %struct.student*, %struct.student** %3, align 8
  %30 = getelementptr inbounds %struct.student, %struct.student* %29, i32 0, i32 3
  %31 = load i32, i32* %30, align 4
  store i32 %31, i32* %5, align 4
  %32 = load %struct.student*, %struct.student** %4, align 8
  %33 = getelementptr inbounds %struct.student, %struct.student* %32, i32 0, i32 3
  %34 = load i32, i32* %33, align 4
  %35 = load %struct.student*, %struct.student** %3, align 8
  %36 = getelementptr inbounds %struct.student, %struct.student* %35, i32 0, i32 3
  store i32 %34, i32* %36, align 4
  %37 = load i32, i32* %5, align 4
  %38 = load %struct.student*, %struct.student** %4, align 8
  %39 = getelementptr inbounds %struct.student, %struct.student* %38, i32 0, i32 3
  store i32 %37, i32* %39, align 4
  br label %40

40:                                               ; preds = %17, %9
  %41 = load %struct.student*, %struct.student** %4, align 8
  %42 = getelementptr inbounds %struct.student, %struct.student* %41, i32 0, i32 4
  %43 = load %struct.student*, %struct.student** %42, align 8
  store %struct.student* %43, %struct.student** %4, align 8
  br label %6

44:                                               ; preds = %6
  ret void
}

declare dso_local i32 @printf(i8*, ...) #2


!llvm.module.flags = !{!0}
!llvm.ident = !{!1}

!0 = !{i32 1, !"wchar_size", i32 4}
!1 = !{!"clang version 10.0.0-4ubuntu1 "}
